target datalayout = "e-m:e-p270:32:32-p271:32:32-p272:64:64-i64:64-i128:128-f80:128-n8:16:32:64-S128"
target triple = "x86_64-pc-linux-gnu"

%struct.ZSTDv05_parameters = type { i64, i32, i32, i32, i32, i32, i32, i32 }

; Function Attrs: inlinehint nounwind uwtable
define internal i32 @MEM_swap32(i32 noundef %0) #5 {
  %2 = alloca i32, align 4
  store i32 %0, ptr %2, align 4, !tbaa !3
  %3 = load i32, ptr %2, align 4, !tbaa !3
  %4 = call i32 @llvm.bswap.i32(i32 %3)
  ret i32 %4
}

; Function Attrs: inlinehint nounwind uwtable
define internal i32 @MEM_read32(ptr noundef %0) #5 {
  %2 = alloca ptr, align 8
  store ptr %0, ptr %2, align 8, !tbaa !12
  %3 = load ptr, ptr %2, align 8, !tbaa !12
  %4 = load i32, ptr %3, align 1, !tbaa !3
  ret i32 %4
}

; Function Attrs: inlinehint nounwind uwtable
define internal i32 @MEM_isLittleEndian() #5 {
  ret i32 1
}

; Function Attrs: inlinehint nounwind uwtable
define internal i32 @MEM_readLE32(ptr noundef %0) #5 {
  %2 = alloca i32, align 4
  %3 = alloca ptr, align 8
  store ptr %0, ptr %3, align 8, !tbaa !12
  %4 = call i32 @MEM_isLittleEndian()
  %5 = icmp ne i32 %4, 0
  br i1 %5, label %6, label %9

6:                                                ; preds = %1
  %7 = load ptr, ptr %3, align 8, !tbaa !12
  %8 = call i32 @MEM_read32(ptr noundef %7)
  store i32 %8, ptr %2, align 4
  br label %13

9:                                                ; preds = %1
  %10 = load ptr, ptr %3, align 8, !tbaa !12
  %11 = call i32 @MEM_read32(ptr noundef %10)
  %12 = call i32 @MEM_swap32(i32 noundef %11)
  store i32 %12, ptr %2, align 4
  br label %13

13:                                               ; preds = %9, %6
  %14 = load i32, ptr %2, align 4
  ret i32 %14
}

; Function Attrs: nounwind uwtable
define i64 @ZSTDv05_getFrameParams(ptr noundef %0, ptr noundef %1, i64 noundef %2) #0 {
  %4 = alloca i64, align 8
  %5 = alloca ptr, align 8
  %6 = alloca ptr, align 8
  %7 = alloca i64, align 8
  %8 = alloca i32, align 4
  %9 = alloca i32, align 4
  store ptr %0, ptr %5, align 8, !tbaa !12
  store ptr %1, ptr %6, align 8, !tbaa !12
  store i64 %2, ptr %7, align 8, !tbaa !29
  call void @llvm.lifetime.start.p0(i64 4, ptr %8) #11
  %10 = load i64, ptr %7, align 8, !tbaa !29
  %11 = icmp ult i64 %10, 5
  br i1 %11, label %12, label %13

12:                                               ; preds = %3
  store i64 5, ptr %4, align 8
  store i32 1, ptr %9, align 4
  br label %37

13:                                               ; preds = %3
  %14 = load ptr, ptr %6, align 8, !tbaa !12
  %15 = call i32 @MEM_readLE32(ptr noundef %14)
  store i32 %15, ptr %8, align 4, !tbaa !3
  %16 = load i32, ptr %8, align 4, !tbaa !3
  %17 = icmp ne i32 %16, -47205083
  br i1 %17, label %18, label %19

18:                                               ; preds = %13
  store i64 -10, ptr %4, align 8
  store i32 1, ptr %9, align 4
  br label %37

19:                                               ; preds = %13
  %20 = load ptr, ptr %5, align 8, !tbaa !12
  call void @llvm.memset.p0.i64(ptr align 8 %20, i8 0, i64 40, i1 false)
  %21 = load ptr, ptr %6, align 8, !tbaa !12
  %22 = getelementptr inbounds i8, ptr %21, i64 4
  %23 = load i8, ptr %22, align 1, !tbaa !24
  %24 = zext i8 %23 to i32
  %25 = and i32 %24, 15
  %26 = add nsw i32 %25, 11
  %27 = load ptr, ptr %5, align 8, !tbaa !12
  %28 = getelementptr inbounds nuw %struct.ZSTDv05_parameters, ptr %27, i32 0, i32 1
  store i32 %26, ptr %28, align 8, !tbaa !86
  %29 = load ptr, ptr %6, align 8, !tbaa !12
  %30 = getelementptr inbounds i8, ptr %29, i64 4
  %31 = load i8, ptr %30, align 1, !tbaa !24
  %32 = zext i8 %31 to i32
  %33 = ashr i32 %32, 4
  %34 = icmp ne i32 %33, 0
  br i1 %34, label %35, label %36

35:                                               ; preds = %19
  store i64 -14, ptr %4, align 8
  store i32 1, ptr %9, align 4
  br label %37

36:                                               ; preds = %19
  store i64 0, ptr %4, align 8
  store i32 1, ptr %9, align 4
  br label %37

37:                                               ; preds = %36, %35, %18, %12
  call void @llvm.lifetime.end.p0(i64 4, ptr %8) #11
  %38 = load i64, ptr %4, align 8
  ret i64 %38
}