; Function Attrs: mustprogress nofree norecurse nosync nounwind willreturn memory(argmem: readwrite) uwtable
define range(i64 -14, 6) i64 @ZSTDv05_getFrameParams(ptr noundef writeonly captures(none) %0, ptr noundef readonly captures(none) %1, i64 noundef %2) local_unnamed_addr #17 {
  %4 = icmp ult i64 %2, 5
  br i1 %4, label %13, label %5

5:                                                ; preds = %3
  %.val = load i32, ptr %1, align 1, !tbaa !17
  %.not = icmp eq i32 %.val, -47205083
  br i1 %.not, label %6, label %13

6:                                                ; preds = %5
  tail call void @llvm.memset.p0.i64(ptr noundef nonnull align 8 dereferenceable(40) %0, i8 0, i64 40, i1 false)
  %7 = getelementptr inbounds nuw i8, ptr %1, i64 4
  %8 = load i8, ptr %7, align 1, !tbaa !27
  %9 = and i8 %8, 15
  %narrow = add nuw nsw i8 %9, 11
  %10 = zext nneg i8 %narrow to i32
  %11 = getelementptr inbounds nuw i8, ptr %0, i64 8
  store i32 %10, ptr %11, align 8, !tbaa !75
  %12 = load i8, ptr %7, align 1, !tbaa !27
  %.not7 = icmp ult i8 %12, 16
  %. = select i1 %.not7, i64 0, i64 -14
  br label %13

13:                                               ; preds = %6, %5, %3
  %.0 = phi i64 [ 5, %3 ], [ -10, %5 ], [ %., %6 ]
  ret i64 %.0
}